target datalayout = "e-m:e-p270:32:32-p271:32:32-p272:64:64-i64:64-i128:128-f80:128-n8:16:32:64-S128"
target triple = "x86_64-pc-linux-gnu"

%struct.rb_zlib_deflate_arguments = type { ptr, i64, i32 }

; Function Attrs: nounwind sspstrong uwtable
define internal i64 @rb_deflate_deflate_body(i64 noundef %0) #0 {
  %2 = alloca i64, align 8
  %3 = alloca ptr, align 8
  store i64 %0, ptr %2, align 8, !tbaa !6
  call void @llvm.lifetime.start.p0(i64 8, ptr %3) #23
  %4 = load i64, ptr %2, align 8, !tbaa !6
  %5 = inttoptr i64 %4 to ptr
  store ptr %5, ptr %3, align 8, !tbaa !122
  %6 = load ptr, ptr %3, align 8, !tbaa !122
  %7 = getelementptr inbounds nuw %struct.rb_zlib_deflate_arguments, ptr %6, i32 0, i32 0
  %8 = load ptr, ptr %7, align 8, !tbaa !36
  %9 = load ptr, ptr %3, align 8, !tbaa !122
  %10 = getelementptr inbounds nuw %struct.rb_zlib_deflate_arguments, ptr %9, i32 0, i32 1
  %11 = load i64, ptr %10, align 8, !tbaa !38
  %12 = load ptr, ptr %3, align 8, !tbaa !122
  %13 = getelementptr inbounds nuw %struct.rb_zlib_deflate_arguments, ptr %12, i32 0, i32 2
  %14 = load i32, ptr %13, align 8, !tbaa !39
  call void @do_deflate(ptr noundef %8, i64 noundef %11, i32 noundef %14)
  %15 = load ptr, ptr %3, align 8, !tbaa !122
  %16 = getelementptr inbounds nuw %struct.rb_zlib_deflate_arguments, ptr %15, i32 0, i32 0
  %17 = load ptr, ptr %16, align 8, !tbaa !36
  %18 = call i64 @zstream_detach_buffer(ptr noundef %17)
  call void @llvm.lifetime.end.p0(i64 8, ptr %3) #23
  ret i64 %18
}