; Function Attrs: nounwind sspstrong uwtable
define internal i64 @rb_deflate_deflate_body(i64 noundef %0) #0 {
  %2 = inttoptr i64 %0 to ptr
  %3 = load ptr, ptr %2, align 8, !tbaa !80
  %4 = getelementptr inbounds nuw i8, ptr %2, i64 8
  %5 = load i64, ptr %4, align 8, !tbaa !82
  %6 = getelementptr inbounds nuw i8, ptr %2, i64 16
  %7 = load i32, ptr %6, align 8, !tbaa !83
  tail call fastcc void @do_deflate(ptr noundef %3, i64 noundef %5, i32 noundef %7)
  %8 = load ptr, ptr %2, align 8, !tbaa !80
  %9 = tail call fastcc i64 @zstream_detach_buffer(ptr noundef %8)
  ret i64 %9
}